ccopy_reg
_reconstructor
p0
(csklearn.pipeline
Pipeline
p1
c__builtin__
object
p2
Ntp3
Rp4
(dp5
S'steps'
p6
(lp7
(S'scaler'
p8
g0
(cfeature_scaling
SigmoidMinMaxScaler
p9
g2
Ntp10
Rp11
(dp12
S'copy'
p13
I01
sS'feature_range'
p14
(I0
I1
tp15
sbtp16
a(S'knn'
p17
g0
(csklearn.neighbors.classification
KNeighborsClassifier
p18
g2
Ntp19
Rp20
(dp21
S'n_neighbors'
p22
I1
sS'algorithm'
p23
S'auto'
p24
sS'metric'
p25
S'minkowski'
p26
sS'metric_params'
p27
NsS'p'
p28
I2
sS'radius'
p29
NsS'leaf_size'
p30
I30
sS'_fit_method'
p31
NsS'weights'
p32
S'uniform'
p33
sS'_tree'
p34
NsS'_fit_X'
p35
Nsbtp36
asS'named_steps'
p37
(dp38
g17
g20
sg8
g11
ssb.