(dp0
S'METTS MARK'
p1
(dp2
S'to_messages'
p3
I807
sS'deferral_payments'
p4
S'NaN'
p5
sS'expenses'
p6
I94299
sS'prop_from_poi'
p7
F0.04708798017348203
sS'poi'
p8
I00
sS'deferred_income'
p9
g5
sS'email_address'
p10
S'mark.metts@enron.com'
p11
sS'long_term_incentive'
p12
g5
sS'restricted_stock_deferred'
p13
g5
sS'shared_receipt_with_poi'
p14
I702
sS'loan_advances'
p15
g5
sS'from_messages'
p16
I29
sS'other'
p17
I1740
sS'prop_shared_with_poi'
p18
F0.8698884758364313
sS'director_fees'
p19
g5
sS'prop_rest_stock'
p20
S'NaN'
p21
sS'bonus'
p22
I600000
sS'total_stock_value'
p23
I585062
sS'prop_to_poi'
p24
F0.034482758620689655
sS'from_poi_to_this_person'
p25
I38
sS'from_this_person_to_poi'
p26
I1
sS'restricted_stock'
p27
I585062
sS'salary'
p28
I365788
sS'total_payments'
p29
I1061827
sS'exercised_stock_options'
p30
g5
sS'prop_exercised_stock'
p31
g21
ssS'BAXTER JOHN C'
p32
(dp33
g3
g5
sg4
I1295738
sg6
I11200
sg7
g21
sg8
I00
sg9
I-1386055
sg10
g5
sg12
I1586055
sg13
g5
sg14
g5
sg15
g5
sg16
g5
sg17
I2660303
sg18
g21
sg19
g5
sg20
F1.694402383738714
sg22
I1200000
sg23
I10623258
sg24
g21
sg25
g5
sg26
g5
sg27
I3942714
sg28
I267102
sg29
I5634343
sg30
I6680544
sg31
F0.6288601858299968
ssS'ELLIOTT STEVEN'
p34
(dp35
g3
g5
sg4
g5
sg6
I78552
sg7
g21
sg8
I00
sg9
I-400729
sg10
S'steven.elliott@enron.com'
p36
sg12
g5
sg13
g5
sg14
g5
sg15
g5
sg16
g5
sg17
I12961
sg18
g21
sg19
g5
sg20
F2.734493743258605
sg22
I350000
sg23
I6678735
sg24
g21
sg25
g5
sg26
g5
sg27
I1788391
sg28
I170941
sg29
I211725
sg30
I4890344
sg31
F0.7322260877246963
ssS'CORDES WILLIAM R'
p37
(dp38
g3
I764
sg4
g5
sg6
g5
sg7
F0.013089005235602094
sg8
I00
sg9
g5
sg10
S'bill.cordes@enron.com'
p39
sg12
g5
sg13
g5
sg14
I58
sg15
g5
sg16
I12
sg17
g5
sg18
F0.07591623036649214
sg19
g5
sg20
F1.6872662326737158
sg22
g5
sg23
I1038185
sg24
F0.0
sg25
I10
sg26
I0
sg27
I386335
sg28
g5
sg29
g5
sg30
I651850
sg31
F0.6278746080900803
ssS'HANNON KEVIN P'
p40
(dp41
g3
I1045
sg4
g5
sg6
I34039
sg7
F0.03062200956937799
sg8
I01
sg9
I-3117011
sg10
S'kevin.hannon@enron.com'
p42
sg12
I1617011
sg13
g5
sg14
I1035
sg15
g5
sg16
I32
sg17
I11350
sg18
F0.9904306220095693
sg19
g5
sg20
F6.4918939258953605
sg22
I1500000
sg23
I6391065
sg24
F0.65625
sg25
I32
sg26
I21
sg27
I853064
sg28
I243293
sg29
I288682
sg30
I5538001
sg31
F0.8665224027607292
ssS'MORDAUNT KRISTINA M'
p43
(dp44
g3
g5
sg4
g5
sg6
I35018
sg7
g21
sg8
I00
sg9
g5
sg10
S'kristina.mordaunt@enron.com'
p45
sg12
g5
sg13
g5
sg14
g5
sg15
g5
sg16
g5
sg17
I1411
sg18
g21
sg19
g5
sg20
g21
sg22
I325000
sg23
I208510
sg24
g21
sg25
g5
sg26
g5
sg27
I208510
sg28
I267093
sg29
I628522
sg30
g5
sg31
g21
ssS'MEYER ROCKFORD G'
p46
(dp47
g3
I232
sg4
I1848227
sg6
g5
sg7
F0.0
sg8
I00
sg9
g5
sg10
S'rockford.meyer@enron.com'
p48
sg12
g5
sg13
g5
sg14
I22
sg15
g5
sg16
I28
sg17
g5
sg18
F0.09482758620689655
sg19
g5
sg20
F1.0672709263296307
sg22
g5
sg23
I955873
sg24
F0.0
sg25
I0
sg26
I0
sg27
I462384
sg28
g5
sg29
I1848227
sg30
I493489
sg31
F0.5162704668925684
ssS'MCMAHON JEFFREY'
p49
(dp50
g3
I2355
sg4
g5
sg6
I137108
sg7
F0.024628450106157114
sg8
I00
sg9
g5
sg10
S'jeffrey.mcmahon@enron.com'
p51
sg12
I694862
sg13
g5
sg14
I2228
sg15
g5
sg16
I48
sg17
I297353
sg18
F0.9460721868365181
sg19
g5
sg20
F1.9757552330793968
sg22
I2600000
sg23
I1662855
sg24
F0.5416666666666666
sg25
I58
sg26
I26
sg27
I558801
sg28
I370448
sg29
I4099771
sg30
I1104054
sg31
F0.6639508556067727
ssS'HORTON STANLEY C'
p52
(dp53
g3
I2350
sg4
I3131860
sg6
g5
sg7
F0.01872340425531915
sg8
I00
sg9
g5
sg10
S'stanley.horton@enron.com'
p54
sg12
g5
sg13
g5
sg14
I1074
sg15
g5
sg16
I1073
sg17
g5
sg18
F0.4570212765957447
sg19
g5
sg20
F2.546611836590865
sg22
g5
sg23
I7256648
sg24
F0.013979496738117428
sg25
I44
sg26
I15
sg27
I2046079
sg28
g5
sg29
I3131860
sg30
I5210569
sg31
F0.7180407538025821
ssS'PIPER GREGORY F'
p55
(dp56
g3
I1238
sg4
I1130036
sg6
I43057
sg7
F0.049273021001615507
sg8
I00
sg9
I-33333
sg10
S'greg.piper@enron.com'
p57
sg12
g5
sg13
I-409554
sg14
I742
sg15
g5
sg16
I222
sg17
I778
sg18
F0.5993537964458805
sg19
g5
sg20
F2.1493868940359513
sg22
I400000
sg23
I880290
sg24
F0.21621621621621623
sg25
I61
sg26
I48
sg27
I409554
sg28
I197091
sg29
I1737629
sg30
I880290
sg31
F1.0
ssS'HUMPHREY GENE E'
p58
(dp59
g3
I128
sg4
I2964506
sg6
I4994
sg7
F0.078125
sg8
I00
sg9
g5
sg10
S'gene.humphrey@enron.com'
p60
sg12
g5
sg13
g5
sg14
I119
sg15
g5
sg16
I17
sg17
g5
sg18
F0.9296875
sg19
g5
sg20
g21
sg22
g5
sg23
I2282768
sg24
F1.0
sg25
I10
sg26
I17
sg27
g5
sg28
I130724
sg29
I3100224
sg30
I2282768
sg31
F1.0
ssS'UMANOFF ADAM S'
p61
(dp62
g3
I111
sg4
g5
sg6
I53122
sg7
F0.10810810810810811
sg8
I00
sg9
g5
sg10
S'adam.umanoff@enron.com'
p63
sg12
g5
sg13
g5
sg14
I41
sg15
g5
sg16
I18
sg17
g5
sg18
F0.36936936936936937
sg19
g5
sg20
g21
sg22
I788750
sg23
g5
sg24
F0.0
sg25
I12
sg26
I0
sg27
g5
sg28
I288589
sg29
I1130461
sg30
g5
sg31
g21
ssS'BLACHMAN JEREMY M'
p64
(dp65
g3
I2475
sg4
g5
sg6
I84208
sg7
F0.010101010101010102
sg8
I00
sg9
g5
sg10
S'jeremy.blachman@enron.com'
p66
sg12
I831809
sg13
g5
sg14
I2326
sg15
g5
sg16
I14
sg17
I272
sg18
F0.9397979797979797
sg19
g5
sg20
F4.048396908607128
sg22
I850000
sg23
I954354
sg24
F0.14285714285714285
sg25
I25
sg26
I2
sg27
I189041
sg28
I248546
sg29
I2014835
sg30
I765313
sg31
F0.8019173178925221
ssS'SUNDE MARTIN'
p67
(dp68
g3
I2647
sg4
g5
sg6
g5
sg7
F0.013978088401964487
sg8
I00
sg9
g5
sg10
S'marty.sunde@enron.com'
p69
sg12
I476451
sg13
g5
sg14
I2565
sg15
g5
sg16
I38
sg17
I111122
sg18
F0.9690215338118625
sg19
g5
sg20
g21
sg22
I700000
sg23
I698920
sg24
F0.34210526315789475
sg25
I37
sg26
I13
sg27
I698920
sg28
I257486
sg29
I1545059
sg30
g5
sg31
g21
ssS'GIBBS DANA R'
p70
(dp71
g3
I169
sg4
I504610
sg6
g5
sg7
F0.0
sg8
I00
sg9
g5
sg10
S'dana.gibbs@enron.com'
p72
sg12
I461912
sg13
g5
sg14
I23
sg15
g5
sg16
I12
sg17
g5
sg18
F0.13609467455621302
sg19
g5
sg20
g21
sg22
g5
sg23
I2218275
sg24
F0.0
sg25
I0
sg26
I0
sg27
g5
sg28
g5
sg29
I966522
sg30
I2218275
sg31
F1.0
ssS'LOWRY CHARLES P'
p73
(dp74
g3
g5
sg4
g5
sg6
g5
sg7
g21
sg8
I00
sg9
g5
sg10
g5
sg12
g5
sg13
I-153686
sg14
g5
sg15
g5
sg16
g5
sg17
g5
sg18
g21
sg19
g5
sg20
F2.421853649649285
sg22
g5
sg23
I372205
sg24
g21
sg25
g5
sg26
g5
sg27
I153686
sg28
g5
sg29
g5
sg30
I372205
sg31
F1.0
ssS'COLWELL WESLEY'
p75
(dp76
g3
I1758
sg4
I27610
sg6
I16514
sg7
F0.13651877133105803
sg8
I01
sg9
I-144062
sg10
S'wes.colwell@enron.com'
p77
sg12
g5
sg13
g5
sg14
I1132
sg15
g5
sg16
I40
sg17
I101740
sg18
F0.6439135381114903
sg19
g5
sg20
g21
sg22
I1200000
sg23
I698242
sg24
F0.275
sg25
I240
sg26
I11
sg27
I698242
sg28
I288542
sg29
I1490344
sg30
g5
sg31
g21
ssS'MULLER MARK S'
p78
(dp79
g3
I136
sg4
I842924
sg6
g5
sg7
F0.08823529411764706
sg8
I00
sg9
I-719000
sg10
S's..muller@enron.com'
p80
sg12
I1725545
sg13
g5
sg14
I114
sg15
g5
sg16
I16
sg17
I947
sg18
F0.8382352941176471
sg19
g5
sg20
F2.9299249988905163
sg22
I1100000
sg23
I1416848
sg24
F0.0
sg25
I12
sg26
I0
sg27
I360528
sg28
I251654
sg29
I3202070
sg30
I1056320
sg31
F0.7455422176549636
ssS'JACKSON CHARLENE R'
p81
(dp82
g3
I258
sg4
g5
sg6
I10181
sg7
F0.09689922480620156
sg8
I00
sg9
g5
sg10
S'charlene.jackson@enron.com'
p83
sg12
g5
sg13
g5
sg14
I117
sg15
g5
sg16
I56
sg17
I2435
sg18
F0.45348837209302323
sg19
g5
sg20
F0.3422833066998106
sg22
I250000
sg23
I725735
sg24
F0.3392857142857143
sg25
I25
sg26
I19
sg27
I540672
sg28
I288558
sg29
I551174
sg30
I185063
sg31
F0.25500079230021977
ssS'WESTFAHL RICHARD K'
p84
(dp85
g3
g5
sg4
g5
sg6
I51870
sg7
g21
sg8
I00
sg9
I-10800
sg10
S'dick.westfahl@enron.com'
p86
sg12
I256191
sg13
g5
sg14
g5
sg15
g5
sg16
g5
sg17
I401130
sg18
g21
sg19
g5
sg20
g21
sg22
g5
sg23
I384930
sg24
g21
sg25
g5
sg26
g5
sg27
I384930
sg28
I63744
sg29
I762135
sg30
g5
sg31
g21
ssS'WALTERS GARETH W'
p87
(dp88
g3
g5
sg4
I53625
sg6
I33785
sg7
g21
sg8
I00
sg9
g5
sg10
g5
sg12
g5
sg13
g5
sg14
g5
sg15
g5
sg16
g5
sg17
g5
sg18
g21
sg19
g5
sg20
g21
sg22
g5
sg23
I1030329
sg24
g21
sg25
g5
sg26
g5
sg27
g5
sg28
g5
sg29
I87410
sg30
I1030329
sg31
F1.0
ssS'WALLS JR ROBERT H'
p89
(dp90
g3
I671
sg4
g5
sg6
I50936
sg7
F0.02533532041728763
sg8
I00
sg9
g5
sg10
S'rob.walls@enron.com'
p91
sg12
I540751
sg13
g5
sg14
I215
sg15
g5
sg16
I146
sg17
I2
sg18
F0.3204172876304024
sg19
g5
sg20
F2.799791040372881
sg22
I850000
sg23
I5898997
sg24
F0.0
sg25
I17
sg26
I0
sg27
I1552453
sg28
I357091
sg29
I1798780
sg30
I4346544
sg31
F0.7368276335790643
ssS'KITCHEN LOUISE'
p92
(dp93
g3
I8305
sg4
g5
sg6
I5774
sg7
F0.030222757375075255
sg8
I00
sg9
g5
sg10
S'louise.kitchen@enron.com'
p94
sg12
g5
sg13
g5
sg14
I3669
sg15
g5
sg16
I1728
sg17
I93925
sg18
F0.441782059000602
sg19
g5
sg20
F0.17387218650035077
sg22
I3100000
sg23
I547143
sg24
F0.11226851851851852
sg25
I251
sg26
I194
sg27
I466101
sg28
I271442
sg29
I3471141
sg30
I81042
sg31
F0.14811849918577044
ssS'CHAN RONNIE'
p95
(dp96
g3
g5
sg4
g5
sg6
g5
sg7
g21
sg8
I00
sg9
I-98784
sg10
g5
sg12
g5
sg13
I-32460
sg14
g5
sg15
g5
sg16
g5
sg17
g5
sg18
g21
sg19
I98784
sg20
g21
sg22
g5
sg23
g5
sg24
g21
sg25
g5
sg26
g5
sg27
I32460
sg28
g5
sg29
g5
sg30
g5
sg31
g21
ssS'BELFER ROBERT'
p97
(dp98
g3
g5
sg4
I-102500
sg20
F0.07450162157258522
sg22
g5
sg23
I-44093
sg6
I3285
sg25
g5
sg26
g5
sg7
g21
sg8
I00
sg9
I-102500
sg24
g21
sg27
I44093
sg12
g5
sg28
g5
sg29
I3285
sg15
g5
sg10
g5
sg13
I44093
sg14
g5
sg30
I3285
sg16
g5
sg17
g5
sg18
g21
sg19
I102500
sg31
F-0.07450162157258522
ssS'SHANKMAN JEFFREY A'
p99
(dp100
g3
I3221
sg4
g5
sg6
I178979
sg7
F0.029183483390251473
sg8
I00
sg9
g5
sg10
S'jeffrey.shankman@enron.com'
p101
sg12
I554422
sg13
g5
sg14
I1730
sg15
g5
sg16
I2681
sg17
I1191
sg18
F0.5371002794163303
sg19
g5
sg20
F2.2882293850384916
sg22
I2000000
sg23
I2072035
sg24
F0.030958597538232
sg25
I94
sg26
I83
sg27
I630137
sg28
I304110
sg29
I3038702
sg30
I1441898
sg31
F0.6958849633331483
ssS'WODRASKA JOHN'
p102
(dp103
g3
g5
sg4
g5
sg6
g5
sg7
g21
sg8
I00
sg9
g5
sg10
S'john.wodraska@enron.com'
p104
sg12
g5
sg13
g5
sg14
g5
sg15
g5
sg16
g5
sg17
I189583
sg18
g21
sg19
g5
sg20
g21
sg22
g5
sg23
g5
sg24
g21
sg25
g5
sg26
g5
sg27
g5
sg28
g5
sg29
I189583
sg30
g5
sg31
g21
ssS'BERGSIEKER RICHARD P'
p105
(dp106
g3
I383
sg4
g5
sg6
I59175
sg7
F0.010443864229765013
sg8
I00
sg9
I-485813
sg10
S'rick.bergsieker@enron.com'
p107
sg12
I180250
sg13
g5
sg14
I233
sg15
g5
sg16
I59
sg17
I427316
sg18
F0.608355091383812
sg19
g5
sg20
g21
sg22
I250000
sg23
I659249
sg24
F0.0
sg25
I4
sg26
I0
sg27
I659249
sg28
I187922
sg29
I618850
sg30
g5
sg31
g21
ssS'URQUHART JOHN A'
p108
(dp109
g3
g5
sg4
g5
sg6
I228656
sg7
g21
sg8
I00
sg9
I-36666
sg10
g5
sg12
g5
sg13
g5
sg14
g5
sg15
g5
sg16
g5
sg17
g5
sg18
g21
sg19
I36666
sg20
g21
sg22
g5
sg23
g5
sg24
g21
sg25
g5
sg26
g5
sg27
g5
sg28
g5
sg29
I228656
sg30
g5
sg31
g21
ssS'BIBI PHILIPPE A'
p110
(dp111
g3
I1607
sg4
g5
sg6
I38559
sg7
F0.01431238332296204
sg8
I00
sg9
g5
sg10
S'philippe.bibi@enron.com'
p112
sg12
I369721
sg13
g5
sg14
I1336
sg15
g5
sg16
I40
sg17
I425688
sg18
F0.8313627878033603
sg19
g5
sg20
F3.876762183864876
sg22
I1000000
sg23
I1843816
sg24
F0.2
sg25
I23
sg26
I8
sg27
I378082
sg28
I213625
sg29
I2047593
sg30
I1465734
sg31
F0.7949459165122768
ssS'RIEKER PAULA H'
p113
(dp114
g3
I1328
sg4
I214678
sg6
I33271
sg7
F0.02635542168674699
sg8
I01
sg9
I-100000
sg10
S'paula.rieker@enron.com'
p115
sg12
g5
sg13
g5
sg14
I1258
sg15
g5
sg16
I82
sg17
I1950
sg18
F0.947289156626506
sg19
g5
sg20
F5.765005341108201
sg22
I700000
sg23
I1918887
sg24
F0.5853658536585366
sg25
I35
sg26
I48
sg27
I283649
sg28
I249201
sg29
I1099100
sg30
I1635238
sg31
F0.8521804566918219
ssS'WHALEY DAVID A'
p116
(dp117
g3
g5
sg4
g5
sg6
g5
sg7
g21
sg8
I00
sg9
g5
sg10
g5
sg12
g5
sg13
g5
sg14
g5
sg15
g5
sg16
g5
sg17
g5
sg18
g21
sg19
g5
sg20
g21
sg22
g5
sg23
I98718
sg24
g21
sg25
g5
sg26
g5
sg27
g5
sg28
g5
sg29
g5
sg30
I98718
sg31
F1.0
ssS'BECK SALLY W'
p118
(dp119
g3
I7315
sg4
g5
sg6
I37172
sg7
F0.01968557758031442
sg8
I00
sg9
g5
sg10
S'sally.beck@enron.com'
p120
sg12
g5
sg13
g5
sg14
I2639
sg15
g5
sg16
I4343
sg17
I566
sg18
F0.36076555023923446
sg19
g5
sg20
g21
sg22
I700000
sg23
I126027
sg24
F0.08887865530739121
sg25
I144
sg26
I386
sg27
I126027
sg28
I231330
sg29
I969068
sg30
g5
sg31
g21
ssS'HAUG DAVID L'
p121
(dp122
g3
I573
sg4
g5
sg6
I475
sg7
F0.006980802792321117
sg8
I00
sg9
g5
sg10
S'david.haug@enron.com'
p123
sg12
g5
sg13
g5
sg14
I471
sg15
g5
sg16
I19
sg17
g5
sg18
F0.8219895287958116
sg19
g5
sg20
g21
sg22
g5
sg23
I2217299
sg24
F0.3684210526315789
sg25
I4
sg26
I7
sg27
I2217299
sg28
g5
sg29
I475
sg30
g5
sg31
g21
ssS'ECHOLS JOHN B'
p124
(dp125
g3
g5
sg4
g5
sg6
I21530
sg7
g21
sg8
I00
sg9
g5
sg10
S'john.echols@enron.com'
p126
sg12
I2234774
sg13
g5
sg14
g5
sg15
g5
sg16
g5
sg17
I53775
sg18
g21
sg19
g5
sg20
F1.4759106067930787
sg22
I200000
sg23
I1008941
sg24
g21
sg25
g5
sg26
g5
sg27
I407503
sg28
I182245
sg29
I2692324
sg30
I601438
sg31
F0.5961081966140735
ssS'MENDELSOHN JOHN'
p127
(dp128
g3
g5
sg4
g5
sg6
I148
sg7
g21
sg8
I00
sg9
I-103750
sg10
g5
sg12
g5
sg13
g5
sg14
g5
sg15
g5
sg16
g5
sg17
g5
sg18
g21
sg19
I103750
sg20
g21
sg22
g5
sg23
g5
sg24
g21
sg25
g5
sg26
g5
sg27
g5
sg28
g5
sg29
I148
sg30
g5
sg31
g21
ssS'HICKERSON GARY J'
p129
(dp130
g3
I1320
sg4
g5
sg6
I98849
sg7
F0.030303030303030304
sg8
I00
sg9
g5
sg10
S'gary.hickerson@enron.com'
p131
sg12
I69223
sg13
g5
sg14
I900
sg15
g5
sg16
I27
sg17
I1936
sg18
F0.6818181818181818
sg19
g5
sg20
g21
sg22
I1700000
sg23
I441096
sg24
F0.037037037037037035
sg25
I40
sg26
I1
sg27
I441096
sg28
I211788
sg29
I2081796
sg30
g5
sg31
g21
ssS'CLINE KENNETH W'
p132
(dp133
g3
g5
sg4
g5
sg6
g5
sg7
g21
sg8
I00
sg9
g5
sg10
g5
sg12
g5
sg13
I-472568
sg14
g5
sg15
g5
sg16
g5
sg17
g5
sg18
g21
sg19
g5
sg20
g21
sg22
g5
sg23
I189518
sg24
g21
sg25
g5
sg26
g5
sg27
I662086
sg28
g5
sg29
g5
sg30
g5
sg31
g21
ssS'LEWIS RICHARD'
p134
(dp135
g3
I952
sg4
g5
sg6
g5
sg7
F0.01050420168067227
sg8
I00
sg9
g5
sg10
S'richard.lewis@enron.com'
p136
sg12
g5
sg13
g5
sg14
I739
sg15
g5
sg16
I26
sg17
g5
sg18
F0.7762605042016807
sg19
g5
sg20
g21
sg22
g5
sg23
I850477
sg24
F0.0
sg25
I10
sg26
I0
sg27
g5
sg28
g5
sg29
g5
sg30
I850477
sg31
F1.0
ssS'HAYES ROBERT E'
p137
(dp138
g3
I504
sg4
I7961
sg6
g5
sg7
F0.031746031746031744
sg8
I00
sg9
g5
sg10
S'robert.hayes@enron.com'
p139
sg12
g5
sg13
g5
sg14
I50
sg15
g5
sg16
I12
sg17
g5
sg18
F0.0992063492063492
sg19
g5
sg20
g21
sg22
g5
sg23
I151418
sg24
F0.0
sg25
I16
sg26
I0
sg27
I151418
sg28
g5
sg29
I7961
sg30
g5
sg31
g21
ssS'MCCARTY DANNY J'
p140
(dp141
g3
I1433
sg4
g5
sg6
g5
sg7
F0.017445917655268667
sg8
I00
sg9
g5
sg10
S'danny.mccarty@enron.com'
p142
sg12
g5
sg13
g5
sg14
I508
sg15
g5
sg16
I215
sg17
g5
sg18
F0.35450104675505933
sg19
g5
sg20
F7.026259571047845
sg22
g5
sg23
I758931
sg24
F0.009302325581395349
sg25
I25
sg26
I2
sg27
I94556
sg28
g5
sg29
g5
sg30
I664375
sg31
F0.8754089633971995
ssS'KOPPER MICHAEL J'
p143
(dp144
g3
g5
sg4
g5
sg6
I118134
sg7
g21
sg8
I01
sg9
g5
sg10
S'michael.kopper@enron.com'
p145
sg12
I602671
sg13
g5
sg14
g5
sg15
g5
sg16
g5
sg17
I907502
sg18
g21
sg19
g5
sg20
g21
sg22
I800000
sg23
I985032
sg24
g21
sg25
g5
sg26
g5
sg27
I985032
sg28
I224305
sg29
I2652612
sg30
g5
sg31
g21
ssS'LEFF DANIEL P'
p146
(dp147
g3
I2822
sg4
g5
sg6
g5
sg7
F0.02374202693125443
sg8
I00
sg9
g5
sg10
S'dan.leff@enron.com'
p148
sg12
I1387399
sg13
g5
sg14
I2672
sg15
g5
sg16
I63
sg17
I3083
sg18
F0.9468462083628633
sg19
g5
sg20
g21
sg22
I1000000
sg23
I360528
sg24
F0.2222222222222222
sg25
I67
sg26
I14
sg27
I360528
sg28
I273746
sg29
I2664228
sg30
g5
sg31
g21
ssS'LAVORATO JOHN J'
p149
(dp150
g3
I7259
sg4
g5
sg6
I49537
sg7
F0.07273729163796666
sg8
I00
sg9
g5
sg10
S'john.lavorato@enron.com'
p151
sg12
I2035380
sg13
g5
sg14
I3962
sg15
g5
sg16
I2585
sg17
I1552
sg18
F0.5458052073288332
sg19
g5
sg20
F4.12537730037921
sg22
I8000000
sg23
I5167144
sg24
F0.15899419729206962
sg25
I528
sg26
I411
sg27
I1008149
sg28
I339288
sg29
I10425757
sg30
I4158995
sg31
F0.80489241252034
ssS'BERBERIAN DAVID'
p152
(dp153
g3
g5
sg4
g5
sg6
I11892
sg7
g21
sg8
I00
sg9
g5
sg10
S'david.berberian@enron.com'
p154
sg12
g5
sg13
g5
sg14
g5
sg15
g5
sg16
g5
sg17
g5
sg18
g21
sg19
g5
sg20
F1.8687973125330757
sg22
g5
sg23
I2493616
sg24
g21
sg25
g5
sg26
g5
sg27
I869220
sg28
I216582
sg29
I228474
sg30
I1624396
sg31
F0.6514218708895034
ssS'DETMERING TIMOTHY J'
p155
(dp156
g3
g5
sg4
I875307
sg6
I52255
sg7
g21
sg8
I00
sg9
I-775241
sg10
S'timothy.detmering@enron.com'
p157
sg12
I415657
sg13
I-315068
sg14
g5
sg15
g5
sg16
g5
sg17
I1105
sg18
g21
sg19
g5
sg20
F6.436277248086127
sg22
I425000
sg23
I2027865
sg24
g21
sg25
g5
sg26
g5
sg27
I315068
sg28
I210500
sg29
I1204583
sg30
I2027865
sg31
F1.0
ssS'WAKEHAM JOHN'
p158
(dp159
g3
g5
sg4
g5
sg6
I103773
sg7
g21
sg8
I00
sg9
g5
sg10
g5
sg12
g5
sg13
g5
sg14
g5
sg15
g5
sg16
g5
sg17
g5
sg18
g21
sg19
I109298
sg20
g21
sg22
g5
sg23
g5
sg24
g21
sg25
g5
sg26
g5
sg27
g5
sg28
g5
sg29
I213071
sg30
g5
sg31
g21
ssS'POWERS WILLIAM'
p160
(dp161
g3
I653
sg4
g5
sg6
g5
sg7
F0.0
sg8
I00
sg9
I-17500
sg10
S'ken.powers@enron.com'
p162
sg12
g5
sg13
g5
sg14
I12
sg15
g5
sg16
I26
sg17
g5
sg18
F0.018376722817764167
sg19
I17500
sg20
g21
sg22
g5
sg23
g5
sg24
F0.0
sg25
I0
sg26
I0
sg27
g5
sg28
g5
sg29
g5
sg30
g5
sg31
g21
ssS'GOLD JOSEPH'
p163
(dp164
g3
g5
sg4
g5
sg6
g5
sg7
g21
sg8
I00
sg9
g5
sg10
S'joe.gold@enron.com'
p165
sg12
I304805
sg13
g5
sg14
g5
sg15
g5
sg16
g5
sg17
I819288
sg18
g21
sg19
g5
sg20
F0.9896145056858371
sg22
I750000
sg23
I877611
sg24
g21
sg25
g5
sg26
g5
sg27
I441096
sg28
I272880
sg29
I2146973
sg30
I436515
sg31
F0.4973900737342627
ssS'BANNANTINE JAMES M'
p166
(dp167
g3
I566
sg4
g5
sg6
I56301
sg7
F0.06890459363957598
sg8
I00
sg9
I-5104
sg10
S'james.bannantine@enron.com'
p168
sg12
g5
sg13
I-560222
sg14
I465
sg15
g5
sg16
I29
sg17
I864523
sg18
F0.8215547703180212
sg19
g5
sg20
F2.3021549291286973
sg22
g5
sg23
I5243487
sg24
F0.0
sg25
I39
sg26
I0
sg27
I1757552
sg28
I477
sg29
I916197
sg30
I4046157
sg31
F0.7716538631639595
ssS'DUNCAN JOHN H'
p169
(dp170
g3
g5
sg4
g5
sg6
g5
sg7
g21
sg8
I00
sg9
I-25000
sg10
g5
sg12
g5
sg13
g5
sg14
g5
sg15
g5
sg16
g5
sg17
g5
sg18
g21
sg19
I102492
sg20
g21
sg22
g5
sg23
I371750
sg24
g21
sg25
g5
sg26
g5
sg27
g5
sg28
g5
sg29
I77492
sg30
I371750
sg31
F1.0
ssS'SHAPIRO RICHARD S'
p171
(dp172
g3
I15149
sg4
g5
sg6
I137767
sg7
F0.0048848108786058485
sg8
I00
sg9
g5
sg10
S'richard.shapiro@enron.com'
p173
sg12
g5
sg13
g5
sg14
I4527
sg15
g5
sg16
I1215
sg17
I705
sg18
F0.29883160604660375
sg19
g5
sg20
F1.6030978679410492
sg22
I650000
sg23
I987001
sg24
F0.053497942386831275
sg25
I74
sg26
I65
sg27
I379164
sg28
I269076
sg29
I1057548
sg30
I607837
sg31
F0.6158423345062467
ssS'SHERRIFF JOHN R'
p174
(dp175
g3
I3187
sg4
g5
sg6
g5
sg7
F0.008785691873235017
sg8
I00
sg9
g5
sg10
S'john.sherriff@enron.com'
p176
sg12
I554422
sg13
g5
sg14
I2103
sg15
g5
sg16
I92
sg17
I1852186
sg18
F0.6598682146219015
sg19
g5
sg20
F1.4191463897376266
sg22
I1500000
sg23
I3128982
sg24
F0.25
sg25
I28
sg26
I23
sg27
I1293424
sg28
I428780
sg29
I4335388
sg30
I1835558
sg31
F0.5866310512492562
ssS'SHELBY REX'
p177
(dp178
g3
I225
sg4
g5
sg6
I22884
sg7
F0.057777777777777775
sg8
I01
sg9
I-4167
sg10
S'rex.shelby@enron.com'
p179
sg12
g5
sg13
g5
sg14
I91
sg15
g5
sg16
I39
sg17
I1573324
sg18
F0.40444444444444444
sg19
g5
sg20
F1.8687973125330757
sg22
I200000
sg23
I2493616
sg24
F0.358974358974359
sg25
I13
sg26
I14
sg27
I869220
sg28
I211844
sg29
I2003885
sg30
I1624396
sg31
F0.6514218708895034
ssS'LEMAISTRE CHARLES'
p180
(dp181
g3
g5
sg4
g5
sg6
g5
sg7
g21
sg8
I00
sg9
I-25000
sg10
g5
sg12
g5
sg13
g5
sg14
g5
sg15
g5
sg16
g5
sg17
g5
sg18
g21
sg19
I112492
sg20
g21
sg22
g5
sg23
I412878
sg24
g21
sg25
g5
sg26
g5
sg27
g5
sg28
g5
sg29
I87492
sg30
I412878
sg31
F1.0
ssS'DEFFNER JOSEPH M'
p182
(dp183
g3
I714
sg4
g5
sg6
I41626
sg7
F0.16106442577030813
sg8
I00
sg9
g5
sg10
S'joseph.deffner@enron.com'
p184
sg12
I335349
sg13
g5
sg14
I552
sg15
g5
sg16
I74
sg17
I25553
sg18
F0.773109243697479
sg19
g5
sg20
F0.1225243772605811
sg22
I600000
sg23
I159211
sg24
F0.05405405405405406
sg25
I115
sg26
I4
sg27
I141833
sg28
I206121
sg29
I1208649
sg30
I17378
sg31
F0.10915074963413332
ssS'KISHKILL JOSEPH G'
p185
(dp186
g3
g5
sg4
g5
sg6
I116335
sg7
g21
sg8
I00
sg9
I-51042
sg10
S'joe.kishkill@enron.com'
p187
sg12
g5
sg13
g5
sg14
g5
sg15
g5
sg16
g5
sg17
I465357
sg18
g21
sg19
g5
sg20
g21
sg22
g5
sg23
I1034346
sg24
g21
sg25
g5
sg26
g5
sg27
I1034346
sg28
I174246
sg29
I704896
sg30
g5
sg31
g21
ssS'WHALLEY LAWRENCE G'
p188
(dp189
g3
I6019
sg4
g5
sg6
I57838
sg7
F0.03090214321315833
sg8
I00
sg9
g5
sg10
S'greg.whalley@enron.com'
p190
sg12
I808346
sg13
g5
sg14
I3920
sg15
g5
sg16
I556
sg17
I301026
sg18
F0.6512709752450573
sg19
g5
sg20
F1.1740887647670373
sg22
I3000000
sg23
I6079137
sg24
F0.04316546762589928
sg25
I186
sg26
I24
sg27
I2796177
sg28
I510364
sg29
I4677574
sg30
I3282960
sg31
F0.5400371796194098
ssS'MCCONNELL MICHAEL S'
p191
(dp192
g3
I3329
sg4
g5
sg6
I81364
sg7
F0.02763592670471613
sg8
I00
sg9
g5
sg10
S'mike.mcconnell@enron.com'
p193
sg12
I554422
sg13
g5
sg14
I2189
sg15
g5
sg16
I2742
sg17
I540
sg18
F0.657554821267648
sg19
g5
sg20
F1.0979124908930649
sg22
I1100000
sg23
I3101279
sg24
F0.07075127644055434
sg25
I92
sg26
I194
sg27
I1478269
sg28
I365038
sg29
I2101364
sg30
I1623010
sg31
F0.5233356947246603
ssS'PIRO JIM'
p194
(dp195
g3
I58
sg4
g5
sg6
g5
sg7
F0.0
sg8
I00
sg9
g5
sg10
S'jim.piro@enron.com'
p196
sg12
g5
sg13
g5
sg14
I3
sg15
g5
sg16
I16
sg17
g5
sg18
F0.05172413793103448
sg19
g5
sg20
g21
sg22
g5
sg23
I47304
sg24
F0.0625
sg25
I0
sg26
I1
sg27
I47304
sg28
g5
sg29
g5
sg30
g5
sg31
g21
ssS'DELAINEY DAVID W'
p197
(dp198
g3
I3093
sg4
g5
sg6
I86174
sg7
F0.02133850630455868
sg8
I01
sg9
g5
sg10
S'david.delainey@enron.com'
p199
sg12
I1294981
sg13
g5
sg14
I2097
sg15
g5
sg16
I3069
sg17
I1661
sg18
F0.6779825412221144
sg19
g5
sg20
F1.7315621532889744
sg22
I3000000
sg23
I3614261
sg24
F0.198435972629521
sg25
I66
sg26
I609
sg27
I1323148
sg28
I365163
sg29
I4747979
sg30
I2291113
sg31
F0.6339091172441614
ssS'SULLIVAN-SHAKLOVITZ COLLEEN'
p200
(dp201
g3
g5
sg4
I181993
sg6
g5
sg7
g21
sg8
I00
sg9
g5
sg10
g5
sg12
I554422
sg13
g5
sg14
g5
sg15
g5
sg16
g5
sg17
I162
sg18
g21
sg19
g5
sg20
g21
sg22
I100000
sg23
I1362375
sg24
g21
sg25
g5
sg26
g5
sg27
g5
sg28
I162779
sg29
I999356
sg30
I1362375
sg31
F1.0
ssS'WROBEL BRUCE'
p202
(dp203
g3
g5
sg4
g5
sg6
g5
sg7
g21
sg8
I00
sg9
g5
sg10
g5
sg12
g5
sg13
g5
sg14
g5
sg15
g5
sg16
g5
sg17
g5
sg18
g21
sg19
g5
sg20
g21
sg22
g5
sg23
I139130
sg24
g21
sg25
g5
sg26
g5
sg27
g5
sg28
g5
sg29
g5
sg30
I139130
sg31
F1.0
ssS'LINDHOLM TOD A'
p204
(dp205
g3
g5
sg4
I204075
sg6
I57727
sg7
g21
sg8
I00
sg9
g5
sg10
S'tod.lindholm@enron.com'
p206
sg12
I175000
sg13
g5
sg14
g5
sg15
g5
sg16
g5
sg17
I2630
sg18
g21
sg19
g5
sg20
F4.951686617577649
sg22
I200000
sg23
I3064208
sg24
g21
sg25
g5
sg26
g5
sg27
I514847
sg28
I236457
sg29
I875889
sg30
I2549361
sg31
F0.8319804008083003
ssS'MEYER JEROME J'
p207
(dp208
g3
g5
sg4
g5
sg6
I2151
sg7
g21
sg8
I00
sg9
I-38346
sg10
g5
sg12
g5
sg13
g5
sg14
g5
sg15
g5
sg16
g5
sg17
g5
sg18
g21
sg19
I38346
sg20
g21
sg22
g5
sg23
g5
sg24
g21
sg25
g5
sg26
g5
sg27
g5
sg28
g5
sg29
I2151
sg30
g5
sg31
g21
ssS'LAY KENNETH L'
p209
(dp210
g3
I4273
sg4
I202911
sg6
I99832
sg7
F0.028785396676807865
sg8
I01
sg9
I-300000
sg10
S'kenneth.lay@enron.com'
p211
sg12
I3600000
sg13
g5
sg14
I2411
sg15
I81525000
sg16
I36
sg17
I10359729
sg18
F0.5642405803884858
sg19
g5
sg20
F2.3268592344482957
sg22
I7000000
sg23
I49110078
sg24
F0.4444444444444444
sg25
I123
sg26
I16
sg27
I14761694
sg28
I1072321
sg29
I103559793
sg30
I34348384
sg31
F0.6994161972212709
ssS'BUTTS ROBERT H'
p212
(dp213
g3
g5
sg4
g5
sg6
I9410
sg7
g21
sg8
I00
sg9
I-75000
sg10
S'bob.butts@enron.com'
p214
sg12
I175000
sg13
g5
sg14
g5
sg15
g5
sg16
g5
sg17
I150656
sg18
g21
sg19
g5
sg20
g21
sg22
I750000
sg23
I417619
sg24
g21
sg25
g5
sg26
g5
sg27
I417619
sg28
I261516
sg29
I1271582
sg30
g5
sg31
g21
ssS'OLSON CINDY K'
p215
(dp216
g3
I1184
sg4
I77716
sg6
I63791
sg7
F0.016891891891891893
sg8
I00
sg9
g5
sg10
S'cindy.olson@enron.com'
p217
sg12
I100000
sg13
g5
sg14
I856
sg15
g5
sg16
I52
sg17
I972
sg18
F0.722972972972973
sg19
g5
sg20
F1.688135551272572
sg22
I750000
sg23
I2606763
sg24
F0.28846153846153844
sg25
I20
sg26
I15
sg27
I969729
sg28
I329078
sg29
I1321557
sg30
I1637034
sg31
F0.6279949500587511
ssS'MCDONALD REBECCA'
p218
(dp219
g3
I894
sg4
g5
sg6
g5
sg7
F0.06040268456375839
sg8
I00
sg9
g5
sg10
S'rebecca.mcdonald@enron.com'
p220
sg12
g5
sg13
g5
sg14
I720
sg15
g5
sg16
I13
sg17
g5
sg18
F0.8053691275167785
sg19
g5
sg20
F0.8107583519348225
sg22
g5
sg23
I1691366
sg24
F0.07692307692307693
sg25
I54
sg26
I1
sg27
I934065
sg28
g5
sg29
g5
sg30
I757301
sg31
F0.4477451953036776
ssS'CUMBERLAND MICHAEL S'
p221
(dp222
g3
g5
sg4
g5
sg6
I22344
sg7
g21
sg8
I00
sg9
g5
sg10
g5
sg12
I275000
sg13
g5
sg14
g5
sg15
g5
sg16
g5
sg17
I713
sg18
g21
sg19
g5
sg20
g21
sg22
I325000
sg23
I207940
sg24
g21
sg25
g5
sg26
g5
sg27
I207940
sg28
I184899
sg29
I807956
sg30
g5
sg31
g21
ssS'GAHN ROBERT S'
p223
(dp224
g3
g5
sg4
I73122
sg6
I50080
sg7
g21
sg8
I00
sg9
I-1042
sg10
g5
sg12
g5
sg13
g5
sg14
g5
sg15
g5
sg16
g5
sg17
I76547
sg18
g21
sg19
g5
sg20
F0.35364320006797806
sg22
I509870
sg23
I318607
sg24
g21
sg25
g5
sg26
g5
sg27
I235370
sg28
I192008
sg29
I900585
sg30
I83237
sg31
F0.2612528914932817
ssS'MCCLELLAN GEORGE'
p225
(dp226
g3
I1744
sg4
g5
sg6
I228763
sg7
F0.02981651376146789
sg8
I00
sg9
I-125000
sg10
S'george.mcclellan@enron.com'
p227
sg12
g5
sg13
g5
sg14
I1469
sg15
g5
sg16
I49
sg17
I51587
sg18
F0.8423165137614679
sg19
g5
sg20
F1.1488768884777918
sg22
I900000
sg23
I947861
sg24
F0.0
sg25
I52
sg26
I0
sg27
I441096
sg28
I263413
sg29
I1318763
sg30
I506765
sg31
F0.534640627686971
ssS'HERMANN ROBERT J'
p228
(dp229
g3
g5
sg4
g5
sg6
I48357
sg7
g21
sg8
I00
sg9
I-280000
sg10
S'robert.hermann@enron.com'
p230
sg12
I150000
sg13
g5
sg14
g5
sg15
g5
sg16
g5
sg17
I416441
sg18
g21
sg19
g5
sg20
F0.39011135338471015
sg22
I700000
sg23
I668132
sg24
g21
sg25
g5
sg26
g5
sg27
I480632
sg28
I262663
sg29
I1297461
sg30
I187500
sg31
F0.2806331682960852
ssS'SCRIMSHAW MATTHEW'
p231
(dp232
g3
g5
sg4
g5
sg6
g5
sg7
g21
sg8
I00
sg9
g5
sg10
S'matthew.scrimshaw@enron.com'
p233
sg12
g5
sg13
g5
sg14
g5
sg15
g5
sg16
g5
sg17
g5
sg18
g21
sg19
g5
sg20
g21
sg22
g5
sg23
I759557
sg24
g21
sg25
g5
sg26
g5
sg27
g5
sg28
g5
sg29
g5
sg30
I759557
sg31
F1.0
ssS'GATHMANN WILLIAM D'
p234
(dp235
g3
g5
sg4
g5
sg6
g5
sg7
g21
sg8
I00
sg9
g5
sg10
g5
sg12
g5
sg13
I-72419
sg14
g5
sg15
g5
sg16
g5
sg17
g5
sg18
g21
sg19
g5
sg20
F6.642725926374838
sg22
g5
sg23
I1945360
sg24
g21
sg25
g5
sg26
g5
sg27
I264013
sg28
g5
sg29
g5
sg30
I1753766
sg31
F0.9015123164864087
ssS'HAEDICKE MARK E'
p236
(dp237
g3
I4009
sg4
I2157527
sg6
I76169
sg7
F0.04489897730107259
sg8
I00
sg9
I-934484
sg10
S'mark.haedicke@enron.com'
p238
sg12
I983346
sg13
I-329825
sg14
I1847
sg15
g5
sg16
I1941
sg17
I52382
sg18
F0.4607133948615615
sg19
g5
sg20
F1.1613620797872442
sg22
I1150000
sg23
I803094
sg24
F0.03142709943328181
sg25
I180
sg26
I61
sg27
I524169
sg28
I374125
sg29
I3859065
sg30
I608750
sg31
F0.7580059121348186
ssS'BOWEN JR RAYMOND M'
p239
(dp240
g3
I1858
sg4
g5
sg6
I65907
sg7
F0.07534983853606028
sg8
I01
sg9
I-833
sg10
S'raymond.bowen@enron.com'
p241
sg12
I974293
sg13
g5
sg14
I1593
sg15
g5
sg16
I27
sg17
I1621
sg18
F0.8573735199138859
sg19
g5
sg20
g21
sg22
I1350000
sg23
I252055
sg24
F0.5555555555555556
sg25
I140
sg26
I15
sg27
I252055
sg28
I278601
sg29
I2669589
sg30
g5
sg31
g21
ssS'GILLIS JOHN'
p242
(dp243
g3
g5
sg4
g5
sg6
g5
sg7
g21
sg8
I00
sg9
g5
sg10
g5
sg12
g5
sg13
g5
sg14
g5
sg15
g5
sg16
g5
sg17
g5
sg18
g21
sg19
g5
sg20
F0.1292623750626335
sg22
g5
sg23
I85641
sg24
g21
sg25
g5
sg26
g5
sg27
I75838
sg28
g5
sg29
g5
sg30
I9803
sg31
F0.11446620193598861
ssS'FITZGERALD JAY L'
p244
(dp245
g3
I936
sg4
g5
sg6
I23870
sg7
F0.0010683760683760685
sg8
I00
sg9
g5
sg10
S'jay.fitzgerald@enron.com'
p246
sg12
I556416
sg13
g5
sg14
I723
sg15
g5
sg16
I16
sg17
I285414
sg18
F0.7724358974358975
sg19
g5
sg20
F0.6944798933918633
sg22
I350000
sg23
I1621236
sg24
F0.5
sg25
I1
sg26
I8
sg27
I956775
sg28
I199157
sg29
I1414857
sg30
I664461
sg31
F0.40984841195236227
ssS'MORAN MICHAEL P'
p247
(dp248
g3
I672
sg4
g5
sg6
g5
sg7
F0.0
sg8
I00
sg9
g5
sg10
S'michael.moran@enron.com'
p249
sg12
g5
sg13
g5
sg14
I127
sg15
g5
sg16
I19
sg17
g5
sg18
F0.18898809523809523
sg19
g5
sg20
F0.36842984616527025
sg22
g5
sg23
I221141
sg24
F0.0
sg25
I0
sg26
I0
sg27
I161602
sg28
g5
sg29
g5
sg30
I59539
sg31
F0.2692354651557151
ssS'REDMOND BRIAN L'
p250
(dp251
g3
I1671
sg4
g5
sg6
I14689
sg7
F0.12208258527827648
sg8
I00
sg9
g5
sg10
S'brian.redmond@enron.com'
p252
sg12
g5
sg13
g5
sg14
I1063
sg15
g5
sg16
I221
sg17
g5
sg18
F0.6361460203470976
sg19
g5
sg20
F19.694032023289665
sg22
g5
sg23
I7890324
sg24
F0.22171945701357465
sg25
I204
sg26
I49
sg27
I381285
sg28
I96840
sg29
I111529
sg30
I7509039
sg31
F0.951676889314051
ssS'BAZELIDES PHILIP J'
p253
(dp254
g3
g5
sg4
I684694
sg6
g5
sg7
g21
sg8
I00
sg9
g5
sg10
g5
sg12
I93750
sg13
g5
sg14
g5
sg15
g5
sg16
g5
sg17
I874
sg18
g21
sg19
g5
sg20
g21
sg22
g5
sg23
I1599641
sg24
g21
sg25
g5
sg26
g5
sg27
g5
sg28
I80818
sg29
I860136
sg30
I1599641
sg31
F1.0
ssS'BELDEN TIMOTHY N'
p255
(dp256
g3
I7991
sg4
I2144013
sg6
I17355
sg7
F0.028532098610937303
sg8
I01
sg9
I-2334434
sg10
S'tim.belden@enron.com'
p257
sg12
g5
sg13
g5
sg14
I5521
sg15
g5
sg16
I484
sg17
I210698
sg18
F0.6909022650481792
sg19
g5
sg20
F6.049007101650705
sg22
I5249999
sg23
I1110705
sg24
F0.2231404958677686
sg25
I228
sg26
I108
sg27
I157569
sg28
I213999
sg29
I5501630
sg30
I953136
sg31
F0.8581360487258093
ssS'DURAN WILLIAM D'
p258
(dp259
g3
I904
sg4
g5
sg6
I25785
sg7
F0.1172566371681416
sg8
I00
sg9
g5
sg10
S'w.duran@enron.com'
p260
sg12
I1105218
sg13
g5
sg14
I599
sg15
g5
sg16
I12
sg17
I1568
sg18
F0.6626106194690266
sg19
g5
sg20
F7.6801804899466255
sg22
I750000
sg23
I1640910
sg24
F0.25
sg25
I106
sg26
I3
sg27
I189041
sg28
I210692
sg29
I2093263
sg30
I1451869
sg31
F0.8847950222742259
ssS'THORN TERENCE H'
p261
(dp262
g3
I266
sg4
I16586
sg6
I46145
sg7
F0.0
sg8
I00
sg9
g5
sg10
S'terence.thorn@enron.com'
p263
sg12
I200000
sg13
g5
sg14
I73
sg15
g5
sg16
I41
sg17
I426629
sg18
F0.2744360902255639
sg19
g5
sg20
F12.1878791196759
sg22
g5
sg23
I4817796
sg24
F0.0
sg25
I0
sg26
I0
sg27
I365320
sg28
I222093
sg29
I911453
sg30
I4452476
sg31
F0.9241727960254025
ssS'FASTOW ANDREW S'
p264
(dp265
g3
g5
sg4
g5
sg6
I55921
sg7
g21
sg8
I01
sg9
I-1386055
sg10
S'andrew.fastow@enron.com'
p266
sg12
I1736055
sg13
g5
sg14
g5
sg15
g5
sg16
g5
sg17
I277464
sg18
g21
sg19
g5
sg20
g21
sg22
I1300000
sg23
I1794412
sg24
g21
sg25
g5
sg26
g5
sg27
I1794412
sg28
I440698
sg29
I2424083
sg30
g5
sg31
g21
ssS'FOY JOE'
p267
(dp268
g3
I57
sg4
I181755
sg6
g5
sg7
F0.0
sg8
I00
sg9
g5
sg10
S'tracy.foy@enron.com'
p269
sg12
g5
sg13
g5
sg14
I2
sg15
g5
sg16
I13
sg17
g5
sg18
F0.03508771929824561
sg19
g5
sg20
g21
sg22
g5
sg23
I343434
sg24
F0.0
sg25
I0
sg26
I0
sg27
g5
sg28
g5
sg29
I181755
sg30
I343434
sg31
F1.0
ssS'CALGER CHRISTOPHER F'
p270
(dp271
g3
I2598
sg4
g5
sg6
I35818
sg7
F0.07659738260200154
sg8
I01
sg9
I-262500
sg10
S'christopher.calger@enron.com'
p272
sg12
I375304
sg13
g5
sg14
I2188
sg15
g5
sg16
I144
sg17
I486
sg18
F0.8421862971516552
sg19
g5
sg20
g21
sg22
I1250000
sg23
I126027
sg24
F0.1736111111111111
sg25
I199
sg26
I25
sg27
I126027
sg28
I240189
sg29
I1639297
sg30
g5
sg31
g21
ssS'RICE KENNETH D'
p273
(dp274
g3
I905
sg4
g5
sg6
I46950
sg7
F0.04640883977900553
sg8
I01
sg9
I-3504386
sg10
S'ken.rice@enron.com'
p275
sg12
I1617011
sg13
g5
sg14
I864
sg15
g5
sg16
I18
sg17
I174839
sg18
F0.9546961325966851
sg19
g5
sg20
F7.202166452478639
sg22
I1750000
sg23
I22542539
sg24
F0.2222222222222222
sg25
I42
sg26
I4
sg27
I2748364
sg28
I420636
sg29
I505050
sg30
I19794175
sg31
F0.8780809916753388
ssS'KAMINSKI WINCENTY J'
p276
(dp277
g3
I4607
sg4
g5
sg6
I83585
sg7
F0.008899500759713479
sg8
I00
sg9
g5
sg10
S'vince.kaminski@enron.com'
p278
sg12
I323466
sg13
g5
sg14
I583
sg15
g5
sg16
I14368
sg17
I4669
sg18
F0.1265465595832429
sg19
g5
sg20
F6.744665825577059
sg22
I400000
sg23
I976037
sg24
F0.011901447661469933
sg25
I41
sg26
I171
sg27
I126027
sg28
I275101
sg29
I1086821
sg30
I850010
sg31
F0.8708788703706929
ssS'LOCKHART EUGENE E'
p279
(dp280
g3
g5
sg4
g5
sg6
g5
sg7
g21
sg8
I00
sg9
g5
sg10
g5
sg12
g5
sg13
g5
sg14
g5
sg15
g5
sg16
g5
sg17
g5
sg18
g21
sg19
g5
sg20
g21
sg22
g5
sg23
g5
sg24
g21
sg25
g5
sg26
g5
sg27
g5
sg28
g5
sg29
g5
sg30
g5
sg31
g21
ssS'COX DAVID'
p281
(dp282
g3
I102
sg4
g5
sg6
I27861
sg7
F0.0
sg8
I00
sg9
I-41250
sg10
S'chip.cox@enron.com'
p283
sg12
g5
sg13
g5
sg14
I71
sg15
g5
sg16
I33
sg17
I494
sg18
F0.696078431372549
sg19
g5
sg20
F0.3109140345216117
sg22
I800000
sg23
I495633
sg24
F0.12121212121212122
sg25
I0
sg26
I4
sg27
I378082
sg28
I314288
sg29
I1101393
sg30
I117551
sg31
F0.23717347311417925
ssS'OVERDYKE JR JERE C'
p284
(dp285
g3
g5
sg4
g5
sg6
I18834
sg7
g21
sg8
I00
sg9
g5
sg10
S'jere.overdyke@enron.com'
p286
sg12
I135836
sg13
g5
sg14
g5
sg15
g5
sg16
g5
sg17
I176
sg18
g21
sg19
g5
sg20
F2.5803707565251814
sg22
g5
sg23
I7307594
sg24
g21
sg25
g5
sg26
g5
sg27
I2041016
sg28
I94941
sg29
I249787
sg30
I5266578
sg31
F0.7206993163550137
ssS'PEREIRA PAULO V. FERRAZ'
p287
(dp288
g3
g5
sg4
g5
sg6
I27942
sg7
g21
sg8
I00
sg9
I-101250
sg10
g5
sg12
g5
sg13
g5
sg14
g5
sg15
g5
sg16
g5
sg17
g5
sg18
g21
sg19
I101250
sg20
g21
sg22
g5
sg23
g5
sg24
g21
sg25
g5
sg26
g5
sg27
g5
sg28
g5
sg29
I27942
sg30
g5
sg31
g21
ssS'STABLER FRANK'
p289
(dp290
g3
g5
sg4
g5
sg6
I16514
sg7
g21
sg8
I00
sg9
g5
sg10
S'frank.stabler@enron.com'
p291
sg12
g5
sg13
g5
sg14
g5
sg15
g5
sg16
g5
sg17
I356071
sg18
g21
sg19
g5
sg20
g21
sg22
I500000
sg23
I511734
sg24
g21
sg25
g5
sg26
g5
sg27
I511734
sg28
I239502
sg29
I1112087
sg30
g5
sg31
g21
ssS'SKILLING JEFFREY K'
p292
(dp293
g3
I3627
sg4
g5
sg6
I29336
sg7
F0.0242624758753791
sg8
I01
sg9
g5
sg10
S'jeff.skilling@enron.com'
p294
sg12
I1920000
sg13
g5
sg14
I2042
sg15
g5
sg16
I108
sg17
I22122
sg18
F0.5629997242900469
sg19
g5
sg20
F2.8128174465403952
sg22
I5600000
sg23
I26093672
sg24
F0.2777777777777778
sg25
I88
sg26
I30
sg27
I6843672
sg28
I1111258
sg29
I8682716
sg30
I19250000
sg31
F0.7377267561269261
ssS'BLAKE JR. NORMAN P'
p295
(dp296
g3
g5
sg4
g5
sg6
I1279
sg7
g21
sg8
I00
sg9
I-113784
sg10
g5
sg12
g5
sg13
g5
sg14
g5
sg15
g5
sg16
g5
sg17
g5
sg18
g21
sg19
I113784
sg20
g21
sg22
g5
sg23
g5
sg24
g21
sg25
g5
sg26
g5
sg27
g5
sg28
g5
sg29
I1279
sg30
g5
sg31
g21
ssS'SHERRICK JEFFREY B'
p297
(dp298
g3
I613
sg4
g5
sg6
g5
sg7
F0.0636215334420881
sg8
I00
sg9
g5
sg10
S'jeffrey.sherrick@enron.com'
p299
sg12
g5
sg13
g5
sg14
I583
sg15
g5
sg16
I25
sg17
g5
sg18
F0.9510603588907015
sg19
g5
sg20
F3.5134790972391556
sg22
g5
sg23
I1832468
sg24
F0.72
sg25
I39
sg26
I18
sg27
I405999
sg28
g5
sg29
g5
sg30
I1426469
sg31
F0.7784414243522942
ssS'PRENTICE JAMES'
p300
(dp301
g3
g5
sg4
I564348
sg6
g5
sg7
g21
sg8
I00
sg9
g5
sg10
S'james.prentice@enron.com'
p302
sg12
g5
sg13
g5
sg14
g5
sg15
g5
sg16
g5
sg17
g5
sg18
g21
sg19
g5
sg20
F4.244218400547869
sg22
g5
sg23
I1095040
sg24
g21
sg25
g5
sg26
g5
sg27
I208809
sg28
g5
sg29
I564348
sg30
I886231
sg31
F0.8093138150204559
ssS'GRAY RODNEY'
p303
(dp304
g3
g5
sg4
I93585
sg6
g5
sg7
g21
sg8
I00
sg9
g5
sg10
g5
sg12
I365625
sg13
g5
sg14
g5
sg15
g5
sg16
g5
sg17
I680833
sg18
g21
sg19
g5
sg20
g21
sg22
g5
sg23
g5
sg24
g21
sg25
g5
sg26
g5
sg27
g5
sg28
I6615
sg29
I1146658
sg30
g5
sg31
g21
ssS'PICKERING MARK R'
p305
(dp306
g3
I898
sg4
g5
sg6
I31653
sg7
F0.0077951002227171495
sg8
I00
sg9
g5
sg10
S'mark.pickering@enron.com'
p307
sg12
g5
sg13
g5
sg14
I728
sg15
I400000
sg16
I67
sg17
g5
sg18
F0.8106904231625836
sg19
g5
sg20
g21
sg22
I300000
sg23
I28798
sg24
F0.0
sg25
I7
sg26
I0
sg27
g5
sg28
I655037
sg29
I1386690
sg30
I28798
sg31
F1.0
ssS'NOLES JAMES L'
p308
(dp309
g3
g5
sg4
I774401
sg6
g5
sg7
g21
sg8
I00
sg9
g5
sg10
g5
sg12
g5
sg13
I-94556
sg14
g5
sg15
g5
sg16
g5
sg17
g5
sg18
g21
sg19
g5
sg20
g21
sg22
g5
sg23
I368705
sg24
g21
sg25
g5
sg26
g5
sg27
I463261
sg28
g5
sg29
I774401
sg30
g5
sg31
g21
ssS'KEAN STEVEN J'
p310
(dp311
g3
I12754
sg4
g5
sg6
I41953
sg7
F0.010976948408342482
sg8
I00
sg9
g5
sg10
S'steven.kean@enron.com'
p312
sg12
I300000
sg13
g5
sg14
I3639
sg15
g5
sg16
I6759
sg17
I1231
sg18
F0.2853222518425592
sg19
g5
sg20
F0.4894111086423303
sg22
I1000000
sg23
I6153642
sg24
F0.05725699067909454
sg25
I140
sg26
I387
sg27
I4131594
sg28
I404338
sg29
I1747522
sg30
I2022048
sg31
F0.32859370109603386
ssS'FOWLER PEGGY'
p313
(dp314
g3
I517
sg4
g5
sg6
g5
sg7
F0.0
sg8
I00
sg9
g5
sg10
S'kulvinder.fowler@enron.com'
p315
sg12
g5
sg13
g5
sg14
I10
sg15
g5
sg16
I36
sg17
g5
sg18
F0.019342359767891684
sg19
g5
sg20
F2.3646000321331027
sg22
g5
sg23
I1884748
sg24
F0.0
sg25
I0
sg26
I0
sg27
I560170
sg28
g5
sg29
g5
sg30
I1324578
sg31
F0.7027878528057863
ssS'WASAFF GEORGE'
p316
(dp317
g3
I400
sg4
I831299
sg6
g5
sg7
F0.055
sg8
I00
sg9
I-583325
sg10
S'george.wasaff@enron.com'
p318
sg12
I200000
sg13
g5
sg14
I337
sg15
g5
sg16
I30
sg17
I1425
sg18
F0.8425
sg19
g5
sg20
F4.297789353551435
sg22
I325000
sg23
I2056427
sg24
F0.23333333333333334
sg25
I22
sg26
I7
sg27
I388167
sg28
I259996
sg29
I1034395
sg30
I1668260
sg31
F0.8112420231790382
ssS'WHITE JR THOMAS E'
p319
(dp320
g3
g5
sg4
g5
sg6
I81353
sg7
g21
sg8
I00
sg9
g5
sg10
S'thomas.white@enron.com'
p321
sg12
g5
sg13
g5
sg14
g5
sg15
g5
sg16
g5
sg17
I1085463
sg18
g21
sg19
g5
sg20
F0.09366953625004099
sg22
I450000
sg23
I15144123
sg24
g21
sg25
g5
sg26
g5
sg27
I13847074
sg28
I317543
sg29
I1934359
sg30
I1297049
sg31
F0.08564701963923563
ssS'CHRISTODOULOU DIOMEDES'
p322
(dp323
g3
g5
sg4
g5
sg6
g5
sg7
g21
sg8
I00
sg9
g5
sg10
S'diomedes.christodoulou@enron.com'
p324
sg12
g5
sg13
g5
sg14
g5
sg15
g5
sg16
g5
sg17
g5
sg18
g21
sg19
g5
sg20
F5.392861275020247
sg22
g5
sg23
I6077885
sg24
g21
sg25
g5
sg26
g5
sg27
I950730
sg28
g5
sg29
g5
sg30
I5127155
sg31
F0.8435755201027989
ssS'ALLEN PHILLIP K'
p325
(dp326
g3
I2902
sg4
I2869717
sg6
I13868
sg7
F0.016195727084769126
sg8
I00
sg9
I-3081055
sg10
S'phillip.allen@enron.com'
p327
sg12
I304805
sg13
I-126027
sg14
I1407
sg15
g5
sg16
I2195
sg17
I152
sg18
F0.4848380427291523
sg19
g5
sg20
F13.723575106921533
sg22
I4175000
sg23
I1729541
sg24
F0.029612756264236904
sg25
I47
sg26
I65
sg27
I126027
sg28
I201955
sg29
I4484442
sg30
I1729541
sg31
F1.0
ssS'SHARP VICTORIA T'
p328
(dp329
g3
I3136
sg4
I187469
sg6
I116337
sg7
F0.007653061224489796
sg8
I00
sg9
g5
sg10
S'vicki.sharp@enron.com'
p330
sg12
I422158
sg13
g5
sg14
I2477
sg15
g5
sg16
I136
sg17
I2401
sg18
F0.7898596938775511
sg19
g5
sg20
F1.3192013629771475
sg22
I600000
sg23
I494136
sg24
F0.04411764705882353
sg25
I24
sg26
I6
sg27
I213063
sg28
I248146
sg29
I1576511
sg30
I281073
sg31
F0.5688170867939191
ssS'JAEDICKE ROBERT'
p331
(dp332
g3
g5
sg4
g5
sg6
g5
sg7
g21
sg8
I00
sg9
I-25000
sg10
g5
sg12
g5
sg13
I-44093
sg14
g5
sg15
g5
sg16
g5
sg17
g5
sg18
g21
sg19
I108750
sg20
F9.791803687660172
sg22
g5
sg23
I431750
sg24
g21
sg25
g5
sg26
g5
sg27
I44093
sg28
g5
sg29
I83750
sg30
I431750
sg31
F1.0
ssS'WINOKUR JR. HERBERT S'
p333
(dp334
g3
g5
sg4
g5
sg6
I1413
sg7
g21
sg8
I00
sg9
I-25000
sg10
g5
sg12
g5
sg13
g5
sg14
g5
sg15
g5
sg16
g5
sg17
g5
sg18
g21
sg19
I108579
sg20
g21
sg22
g5
sg23
g5
sg24
g21
sg25
g5
sg26
g5
sg27
g5
sg28
g5
sg29
I84992
sg30
g5
sg31
g21
ssS'BROWN MICHAEL'
p335
(dp336
g3
I1486
sg4
g5
sg6
I49288
sg7
F0.008748317631224764
sg8
I00
sg9
g5
sg10
S'michael.brown@enron.com'
p337
sg12
g5
sg13
g5
sg14
I761
sg15
g5
sg16
I41
sg17
g5
sg18
F0.5121130551816958
sg19
g5
sg20
g21
sg22
g5
sg23
g5
sg24
F0.024390243902439025
sg25
I13
sg26
I1
sg27
g5
sg28
g5
sg29
I49288
sg30
g5
sg31
g21
ssS'BADUM JAMES P'
p338
(dp339
g3
g5
sg4
I178980
sg6
I3486
sg7
g21
sg8
I00
sg9
g5
sg10
g5
sg12
g5
sg13
g5
sg14
g5
sg15
g5
sg16
g5
sg17
g5
sg18
g21
sg19
g5
sg20
g21
sg22
g5
sg23
I257817
sg24
g21
sg25
g5
sg26
g5
sg27
g5
sg28
g5
sg29
I182466
sg30
I257817
sg31
F1.0
ssS'HUGHES JAMES A'
p340
(dp341
g3
I719
sg4
g5
sg6
g5
sg7
F0.048678720445062586
sg8
I00
sg9
g5
sg10
S'james.hughes@enron.com'
p342
sg12
g5
sg13
g5
sg14
I589
sg15
g5
sg16
I34
sg17
g5
sg18
F0.8191933240611962
sg19
g5
sg20
F2.077346819727704
sg22
g5
sg23
I1118394
sg24
F0.14705882352941177
sg25
I35
sg26
I5
sg27
I363428
sg28
g5
sg29
g5
sg30
I754966
sg31
F0.6750447516706992
ssS'REYNOLDS LAWRENCE'
p343
(dp344
g3
g5
sg4
I51365
sg6
I8409
sg7
g21
sg8
I00
sg9
I-200000
sg10
g5
sg12
I156250
sg13
I-140264
sg14
g5
sg15
g5
sg16
g5
sg17
I202052
sg18
g21
sg19
g5
sg20
F20.6502384816585
sg22
I100000
sg23
I4221891
sg24
g21
sg25
g5
sg26
g5
sg27
I201483
sg28
I76399
sg29
I394475
sg30
I4160672
sg31
F0.9854996256416853
ssS'DIMICHELE RICHARD G'
p345
(dp346
g3
g5
sg4
g5
sg6
I35812
sg7
g21
sg8
I00
sg9
g5
sg10
S'richard.dimichele@enron.com'
p347
sg12
I694862
sg13
g5
sg14
g5
sg15
g5
sg16
g5
sg17
I374689
sg18
g21
sg19
g5
sg20
F65.0
sg22
I1000000
sg23
I8317782
sg24
g21
sg25
g5
sg26
g5
sg27
I126027
sg28
I262788
sg29
I2368151
sg30
I8191755
sg31
F0.9848484848484849
ssS'BHATNAGAR SANJAY'
p348
(dp349
g3
I523
sg4
g5
sg20
F5.934478535145076
sg22
g5
sS'total_stock_value'
p350
I15456290
sg6
I137864
sg25
I0
sg26
I1
sg7
F0.0
sg8
I00
sg9
g5
sg24
F0.034482758620689655
sg27
I2604490
sg12
g5
sg28
g5
sg29
I137864
sg15
g5
sg10
S'sanjay.bhatnagar@enron.com'
p351
sg13
I-2604490
sg14
I463
sg30
I15456290
sg16
I29
sg17
I137864
sg18
F0.8852772466539197
sg19
I137864
sg31
F1.0
ssS'CARTER REBECCA C'
p352
(dp353
g3
I312
sg4
g5
sg6
g5
sg7
F0.09294871794871795
sg8
I00
sg9
I-159792
sg10
S'rebecca.carter@enron.com'
p354
sg12
I75000
sg13
I-307301
sg14
I196
sg15
g5
sg16
I15
sg17
I540
sg18
F0.6282051282051282
sg19
g5
sg20
g21
sg22
I300000
sg23
g5
sg24
F0.4666666666666667
sg25
I29
sg26
I7
sg27
I307301
sg28
I261809
sg29
I477557
sg30
g5
sg31
g21
ssS'BUCHANAN HAROLD G'
p355
(dp356
g3
I1088
sg4
g5
sg6
I600
sg7
F0.0
sg8
I00
sg9
g5
sg10
S'john.buchanan@enron.com'
p357
sg12
I304805
sg13
g5
sg14
I23
sg15
g5
sg16
I125
sg17
I1215
sg18
F0.021139705882352942
sg19
g5
sg20
F4.366587142471739
sg22
I500000
sg23
I1014505
sg24
F0.0
sg25
I0
sg26
I0
sg27
I189041
sg28
I248017
sg29
I1054637
sg30
I825464
sg31
F0.8136618350821336
ssS'YEAP SOON'
p358
(dp359
g3
g5
sg4
g5
sg6
I55097
sg7
g21
sg8
I00
sg9
g5
sg10
g5
sg12
g5
sg13
g5
sg14
g5
sg15
g5
sg16
g5
sg17
g5
sg18
g21
sg19
g5
sg20
g21
sg22
g5
sg23
I192758
sg24
g21
sg25
g5
sg26
g5
sg27
g5
sg28
g5
sg29
I55097
sg30
I192758
sg31
F1.0
ssS'MURRAY JULIA H'
p360
(dp361
g3
I2192
sg4
g5
sg6
I57580
sg7
F0.005018248175182482
sg8
I00
sg9
g5
sg10
S'julia.murray@enron.com'
p362
sg12
I125000
sg13
g5
sg14
I395
sg15
g5
sg16
I45
sg17
I330
sg18
F0.1802007299270073
sg19
g5
sg20
F2.033058690343837
sg22
I400000
sg23
I597461
sg24
F0.044444444444444446
sg25
I11
sg26
I2
sg27
I196983
sg28
I229284
sg29
I812194
sg30
I400478
sg31
F0.6702998187329382
ssS'GARLAND C KEVIN'
p363
(dp364
g3
I209
sg4
g5
sg6
I48405
sg7
F0.04784688995215311
sg8
I00
sg9
g5
sg10
S'kevin.garland@enron.com'
p365
sg12
I375304
sg13
g5
sg14
I178
sg15
g5
sg16
I44
sg17
I60814
sg18
F0.8516746411483254
sg19
g5
sg20
F2.4479756220494253
sg22
I850000
sg23
I896153
sg24
F0.6136363636363636
sg25
I10
sg26
I27
sg27
I259907
sg28
I231946
sg29
I1566469
sg30
I636246
sg31
F0.7099747476156415
ssS'DODSON KEITH'
p366
(dp367
g3
I176
sg4
g5
sg6
I28164
sg7
F0.056818181818181816
sg8
I00
sg9
g5
sg10
S'keith.dodson@enron.com'
p368
sg12
g5
sg13
g5
sg14
I114
sg15
g5
sg16
I14
sg17
I774
sg18
F0.6477272727272727
sg19
g5
sg20
g21
sg22
I70000
sg23
g5
sg24
F0.21428571428571427
sg25
I10
sg26
I3
sg27
g5
sg28
I221003
sg29
I319941
sg30
g5
sg31
g21
ssS'YEAGER F SCOTT'
p369
(dp370
g3
g5
sg4
g5
sg6
I53947
sg7
g21
sg8
I01
sg9
g5
sg10
S'scott.yeager@enron.com'
p371
sg12
g5
sg13
g5
sg14
g5
sg15
g5
sg16
g5
sg17
I147950
sg18
g21
sg19
g5
sg20
F2.323286745785897
sg22
g5
sg23
I11884758
sg24
g21
sg25
g5
sg26
g5
sg27
I3576206
sg28
I158403
sg29
I360300
sg30
I8308552
sg31
F0.6990930736662875
ssS'HIRKO JOSEPH'
p372
(dp373
g3
g5
sg4
I10259
sg6
I77978
sg7
g21
sg8
I01
sg9
g5
sg10
S'joe.hirko@enron.com'
p374
sg12
g5
sg13
g5
sg14
g5
sg15
g5
sg16
g5
sg17
I2856
sg18
g21
sg19
g5
sg20
g21
sg22
g5
sg23
I30766064
sg24
g21
sg25
g5
sg26
g5
sg27
g5
sg28
g5
sg29
I91093
sg30
I30766064
sg31
F1.0
ssS'DIETRICH JANET R'
p375
(dp376
g3
I2572
sg4
g5
sg6
I3475
sg7
F0.11858475894245724
sg8
I00
sg9
g5
sg10
S'janet.dietrich@enron.com'
p377
sg12
I556416
sg13
g5
sg14
I1902
sg15
g5
sg16
I63
sg17
I473
sg18
F0.73950233281493
sg19
g5
sg20
F4.919633222034609
sg22
I600000
sg23
I1865087
sg24
F0.2222222222222222
sg25
I305
sg26
I14
sg27
I315068
sg28
I250100
sg29
I1410464
sg30
I1550019
sg31
F0.8310706149364614
ssS'DERRICK JR. JAMES V'
p378
(dp379
g3
I2181
sg4
g5
sg6
I51124
sg7
F0.029344337459880788
sg8
I00
sg9
I-1284000
sg10
S'james.derrick@enron.com'
p380
sg12
I484000
sg13
I-1787380
sg14
I1401
sg15
g5
sg16
I909
sg17
I7482
sg18
F0.6423658872077029
sg19
g5
sg20
F4.941262070740414
sg22
I800000
sg23
I8831913
sg24
F0.022002200220022004
sg25
I64
sg26
I20
sg27
I1787380
sg28
I492375
sg29
I550981
sg30
I8831913
sg31
F1.0
ssS'FREVERT MARK A'
p381
(dp382
g3
I3275
sg4
I6426990
sg6
I86987
sg7
F0.07389312977099237
sg8
I00
sg9
I-3367011
sg10
S'mark.frevert@enron.com'
p383
sg12
I1617011
sg13
g5
sg14
I2979
sg15
I2000000
sg16
I21
sg17
I7427621
sg18
F0.909618320610687
sg19
g5
sg20
F2.4908922098605593
sg22
I2000000
sg23
I14622185
sg24
F0.2857142857142857
sg25
I242
sg26
I6
sg27
I4188667
sg28
I1060932
sg29
I17252530
sg30
I10433518
sg31
F0.713540281428528
ssS'PAI LOU L'
p384
(dp385
g3
g5
sg4
g5
sg6
I32047
sg7
g21
sg8
I00
sg9
g5
sg10
S'lou.pai@enron.com'
p386
sg12
g5
sg13
g5
sg14
g5
sg15
g5
sg16
g5
sg17
I1829457
sg18
g21
sg19
g5
sg20
F1.817435265218578
sg22
I1000000
sg23
I23817930
sg24
g21
sg25
g5
sg26
g5
sg27
I8453763
sg28
I261879
sg29
I3123383
sg30
I15364167
sg31
F0.6450672665508715
ssS'BAY FRANKLIN R'
p387
(dp388
g3
g5
sg4
I260455
sg6
I129142
sg7
g21
sg8
I00
sg9
I-201641
sg10
S'frank.bay@enron.com'
p389
sg12
g5
sg13
I-82782
sg14
g5
sg15
g5
sg16
g5
sg17
I69
sg18
g21
sg19
g5
sg20
g21
sg22
I400000
sg23
I63014
sg24
g21
sg25
g5
sg26
g5
sg27
I145796
sg28
I239671
sg29
I827696
sg30
g5
sg31
g21
ssS'HAYSLETT RODERICK J'
p390
(dp391
g3
I2649
sg4
g5
sg6
g5
sg7
F0.01321253303133258
sg8
I00
sg9
g5
sg10
S'rod.hayslett@enron.com'
p392
sg12
g5
sg13
g5
sg14
I571
sg15
g5
sg16
I1061
sg17
g5
sg18
F0.21555303888259722
sg19
g5
sg20
g21
sg22
g5
sg23
I346663
sg24
F0.03581526861451461
sg25
I35
sg26
I38
sg27
I346663
sg28
g5
sg29
g5
sg30
g5
sg31
g21
ssS'FUGH JOHN L'
p393
(dp394
g3
g5
sg4
I50591
sg6
g5
sg7
g21
sg8
I00
sg9
g5
sg10
g5
sg12
g5
sg13
g5
sg14
g5
sg15
g5
sg16
g5
sg17
g5
sg18
g21
sg19
g5
sg20
g21
sg22
g5
sg23
I176378
sg24
g21
sg25
g5
sg26
g5
sg27
g5
sg28
g5
sg29
I50591
sg30
I176378
sg31
F1.0
ssS'FALLON JAMES B'
p395
(dp396
g3
I1755
sg4
g5
sg6
I95924
sg7
F0.023931623931623933
sg8
I00
sg9
g5
sg10
S'jim.fallon@enron.com'
p397
sg12
I374347
sg13
g5
sg14
I1604
sg15
g5
sg16
I75
sg17
I401481
sg18
F0.913960113960114
sg19
g5
sg20
F0.675403083880811
sg22
I2500000
sg23
I2332399
sg24
F0.49333333333333335
sg25
I42
sg26
I37
sg27
I1392142
sg28
I304588
sg29
I3676340
sg30
I940257
sg31
F0.40312870996771993
ssS'KOENIG MARK E'
p398
(dp399
g3
I2374
sg4
g5
sg6
I127017
sg7
F0.02232518955349621
sg8
I01
sg9
g5
sg10
S'mark.koenig@enron.com'
p400
sg12
I300000
sg13
g5
sg14
I2271
sg15
g5
sg16
I61
sg17
I150458
sg18
F0.9566133108677338
sg19
g5
sg20
F0.5381136857755796
sg22
I700000
sg23
I1920055
sg24
F0.2459016393442623
sg25
I53
sg26
I15
sg27
I1248318
sg28
I309946
sg29
I1587421
sg30
I671737
sg31
F0.3498529990026327
ssS'SAVAGE FRANK'
p401
(dp402
g3
g5
sg4
g5
sg6
g5
sg7
g21
sg8
I00
sg9
I-121284
sg10
g5
sg12
g5
sg13
g5
sg14
g5
sg15
g5
sg16
g5
sg17
g5
sg18
g21
sg19
I125034
sg20
g21
sg22
g5
sg23
g5
sg24
g21
sg25
g5
sg26
g5
sg27
g5
sg28
g5
sg29
I3750
sg30
g5
sg31
g21
ssS'IZZO LAWRENCE L'
p403
(dp404
g3
I496
sg4
g5
sg6
I28093
sg7
F0.056451612903225805
sg8
I00
sg9
g5
sg10
S'larry.izzo@enron.com'
p405
sg12
I312500
sg13
g5
sg14
I437
sg15
g5
sg16
I19
sg17
I1553729
sg18
F0.8810483870967742
sg19
g5
sg20
F0.5924174402595157
sg22
g5
sg23
I5819980
sg24
F0.2631578947368421
sg25
I28
sg26
I5
sg27
I3654808
sg28
I85274
sg29
I1979596
sg30
I2165172
sg31
F0.3720239588452194
ssS'TILNEY ELIZABETH A'
p406
(dp407
g3
I460
sg4
g5
sg6
g5
sg7
F0.021739130434782608
sg8
I00
sg9
I-575000
sg10
S'elizabeth.tilney@enron.com'
p408
sg12
I275000
sg13
g5
sg14
I379
sg15
g5
sg16
I19
sg17
I152055
sg18
F0.8239130434782609
sg19
g5
sg20
F1.0250662283804213
sg22
I300000
sg23
I1168042
sg24
F0.5789473684210527
sg25
I10
sg26
I11
sg27
I576792
sg28
I247338
sg29
I399393
sg30
I591250
sg31
F0.5061889897794771
ssS'MARTIN AMANDA K'
p409
(dp410
g3
I1522
sg4
I85430
sg6
I8211
sg7
F0.005256241787122208
sg8
I00
sg9
g5
sg10
S'a..martin@enron.com'
p411
sg12
I5145434
sg13
g5
sg14
I477
sg15
g5
sg16
I230
sg17
I2818454
sg18
F0.31340341655716164
sg19
g5
sg20
g21
sg22
g5
sg23
I2070306
sg24
F0.0
sg25
I8
sg26
I0
sg27
g5
sg28
I349487
sg29
I8407016
sg30
I2070306
sg31
F1.0
ssS'BUY RICHARD B'
p412
(dp413
g3
I3523
sg4
I649584
sg6
g5
sg7
F0.04428044280442804
sg8
I00
sg9
I-694862
sg10
S'rick.buy@enron.com'
p414
sg12
I769862
sg13
g5
sg14
I2333
sg15
g5
sg16
I1053
sg17
I400572
sg18
F0.6622196991200682
sg19
g5
sg20
F2.8201555580448
sg22
I900000
sg23
I3444470
sg24
F0.06742640075973409
sg25
I156
sg26
I71
sg27
I901657
sg28
I330546
sg29
I2355702
sg30
I2542813
sg31
F0.7382305550636237
ssS'GRAMM WENDY L'
p415
(dp416
g3
g5
sg4
g5
sg6
g5
sg7
g21
sg8
I00
sg9
g5
sg10
g5
sg12
g5
sg13
g5
sg14
g5
sg15
g5
sg16
g5
sg17
g5
sg18
g21
sg19
I119292
sg20
g21
sg22
g5
sg23
g5
sg24
g21
sg25
g5
sg26
g5
sg27
g5
sg28
g5
sg29
I119292
sg30
g5
sg31
g21
ssS'CAUSEY RICHARD A'
p417
(dp418
g3
I1892
sg4
g5
sg6
I30674
sg7
F0.0306553911205074
sg8
I01
sg9
I-235000
sg10
S'richard.causey@enron.com'
p419
sg12
I350000
sg13
g5
sg14
I1585
sg15
g5
sg16
I49
sg17
I307895
sg18
F0.837737843551797
sg19
g5
sg20
g21
sg22
I1000000
sg23
I2502063
sg24
F0.24489795918367346
sg25
I58
sg26
I12
sg27
I2502063
sg28
I415189
sg29
I1868758
sg30
g5
sg31
g21
ssS'TAYLOR MITCHELL S'
p420
(dp421
g3
I533
sg4
I227449
sg6
g5
sg7
F0.0
sg8
I00
sg9
g5
sg10
S'mitchell.taylor@enron.com'
p422
sg12
g5
sg13
g5
sg14
I300
sg15
g5
sg16
I29
sg17
g5
sg18
F0.5628517823639775
sg19
g5
sg20
F5.642535092355772
sg22
I600000
sg23
I3745048
sg24
F0.0
sg25
I0
sg26
I0
sg27
I563798
sg28
I265214
sg29
I1092663
sg30
I3181250
sg31
F0.849455067064561
ssS'DONAHUE JR JEFFREY M'
p423
(dp424
g3
I865
sg4
g5
sg6
I96268
sg7
F0.21734104046242775
sg8
I00
sg9
I-300000
sg10
S'jeff.donahue@enron.com'
p425
sg12
g5
sg13
g5
sg14
I772
sg15
g5
sg16
I22
sg17
I891
sg18
F0.892485549132948
sg19
g5
sg20
F2.430967283253139
sg22
I800000
sg23
I1080988
sg24
F0.5
sg25
I188
sg26
I11
sg27
I315068
sg28
I278601
sg29
I875760
sg30
I765920
sg31
F0.7085370050361336
ssS'GLISAN JR BEN F'
p426
(dp427
g3
I873
sg4
g5
sg6
I125978
sg7
F0.05956471935853379
sg8
I01
sg9
g5
sg10
S'ben.glisan@enron.com'
p428
sg12
I71023
sg13
g5
sg14
I874
sg15
g5
sg16
I16
sg17
I200308
sg18
F1.0011454753722795
sg19
g5
sg20
F0.9769182718920922
sg22
I600000
sg23
I778546
sg24
F0.375
sg25
I52
sg26
I6
sg27
I393818
sg28
I274975
sg29
I1272284
sg30
I384728
sg31
F0.49416219465516487
ss.