(lp0
S'poi'
p1
aS'prop_shared_with_poi'
p2
aS'total_payments'
p3
aS'restricted_stock_deferred'
p4
aS'prop_rest_stock'
p5
aS'from_messages'
p6
aS'deferral_payments'
p7
aS'prop_exercised_stock'
p8
aS'shared_receipt_with_poi'
p9
aS'to_messages'
p10
aS'from_poi_to_this_person'
p11
aS'total_stock_value'
p12
aS'from_this_person_to_poi'
p13
a.